; Function Attrs: mustprogress nofree norecurse nosync nounwind willreturn memory(argmem: readwrite) uwtable
define void @_ZN17grpc_event_engine12experimental17NativeDNSResolverC2ESt10shared_ptrINS0_11EventEngineEE(ptr nocapture noundef nonnull writeonly align 8 dereferenceable(32) %this, ptr nocapture noundef %event_engine) unnamed_addr #3 align 2 personality ptr @__gxx_personality_v0 {
entry:
  %refs_.i.i = getelementptr inbounds i8, ptr %this, i64 8
  store i64 1, ptr %refs_.i.i, align 8
  store ptr getelementptr inbounds ({ [8 x ptr] }, ptr @_ZTVN17grpc_event_engine12experimental17NativeDNSResolverE, i64 0, i32 0, i64 2), ptr %this, align 8
  %event_engine_ = getelementptr inbounds i8, ptr %this, i64 16
  %0 = load ptr, ptr %event_engine, align 8
  store ptr %0, ptr %event_engine_, align 8
  %_M_refcount.i.i = getelementptr inbounds i8, ptr %this, i64 24
  store ptr null, ptr %_M_refcount.i.i, align 8
  %_M_refcount4.i.i = getelementptr inbounds i8, ptr %event_engine, i64 8
  %1 = load ptr, ptr %_M_refcount4.i.i, align 8
  store ptr null, ptr %_M_refcount4.i.i, align 8
  store ptr %1, ptr %_M_refcount.i.i, align 8
  store ptr null, ptr %event_engine, align 8
  ret void
}